target datalayout = "e-m:e-p270:32:32-p271:32:32-p272:64:64-i64:64-i128:128-f80:128-n8:16:32:64-S128"
target triple = "x86_64-pc-linux-gnu"

%struct._lv_textarea_t = type { %struct._lv_obj_t, ptr, ptr, ptr, ptr, ptr, i32, i32, %struct.anon, i32, i32, i8 }
%struct._lv_obj_t = type { ptr, ptr, ptr, ptr, ptr, %struct.lv_area_t, i32, i16, i16 }
%struct.lv_area_t = type { i32, i32, i32, i32 }
%struct.anon = type { i32, i32, %struct.lv_area_t, i32, i8 }

@__const.lv_textarea_delete_char.del_buf = private unnamed_addr constant [2 x i8] c"\7F\00", align 1
@ta_insert_replace = internal global ptr null, align 8

; Function Attrs: nounwind uwtable
define void @lv_textarea_clear_selection(ptr noundef %0) #0 {
  %2 = alloca ptr, align 8
  %3 = alloca ptr, align 8
  store ptr %0, ptr %2, align 8, !tbaa !8
  br label %4

4:                                                ; preds = %1
  %5 = load ptr, ptr %2, align 8, !tbaa !8
  %6 = icmp ne ptr %5, null
  br i1 %6, label %11, label %7

7:                                                ; preds = %4
  br label %8

8:                                                ; preds = %7
  br label %9

9:                                                ; preds = %8
  br label %10

10:                                               ; preds = %9, %10
  br label %10

11:                                               ; preds = %4
  br label %12

12:                                               ; preds = %11
  call void @llvm.lifetime.start.p0(i64 8, ptr %3) #6
  %13 = load ptr, ptr %2, align 8, !tbaa !8
  store ptr %13, ptr %3, align 8, !tbaa !10
  %14 = load ptr, ptr %3, align 8, !tbaa !10
  %15 = getelementptr inbounds nuw %struct._lv_textarea_t, ptr %14, i32 0, i32 1
  %16 = load ptr, ptr %15, align 8, !tbaa !28
  %17 = call i32 @lv_label_get_text_selection_start(ptr noundef %16)
  %18 = icmp ne i32 %17, 65535
  br i1 %18, label %25, label %19

19:                                               ; preds = %12
  %20 = load ptr, ptr %3, align 8, !tbaa !10
  %21 = getelementptr inbounds nuw %struct._lv_textarea_t, ptr %20, i32 0, i32 1
  %22 = load ptr, ptr %21, align 8, !tbaa !28
  %23 = call i32 @lv_label_get_text_selection_end(ptr noundef %22)
  %24 = icmp ne i32 %23, 65535
  br i1 %24, label %25, label %32

25:                                               ; preds = %19, %12
  %26 = load ptr, ptr %3, align 8, !tbaa !10
  %27 = getelementptr inbounds nuw %struct._lv_textarea_t, ptr %26, i32 0, i32 1
  %28 = load ptr, ptr %27, align 8, !tbaa !28
  call void @lv_label_set_text_selection_start(ptr noundef %28, i32 noundef 65535)
  %29 = load ptr, ptr %3, align 8, !tbaa !10
  %30 = getelementptr inbounds nuw %struct._lv_textarea_t, ptr %29, i32 0, i32 1
  %31 = load ptr, ptr %30, align 8, !tbaa !28
  call void @lv_label_set_text_selection_end(ptr noundef %31, i32 noundef 65535)
  br label %32

32:                                               ; preds = %25, %19
  call void @llvm.lifetime.end.p0(i64 8, ptr %3) #6
  ret void
}

; Function Attrs: nounwind uwtable
define internal i32 @insert_handler(ptr noundef %0, ptr noundef %1) #0 {
  %3 = alloca i32, align 4
  %4 = alloca ptr, align 8
  %5 = alloca ptr, align 8
  store ptr %0, ptr %4, align 8, !tbaa !8
  store ptr %1, ptr %5, align 8, !tbaa !33
  store ptr null, ptr @ta_insert_replace, align 8, !tbaa !33
  %6 = load ptr, ptr %4, align 8, !tbaa !8
  %7 = load ptr, ptr %5, align 8, !tbaa !33
  %8 = call i32 @lv_obj_send_event(ptr noundef %6, i32 noundef 36, ptr noundef %7)
  %9 = load ptr, ptr @ta_insert_replace, align 8, !tbaa !33
  %10 = icmp ne ptr %9, null
  br i1 %10, label %11, label %18

11:                                               ; preds = %2
  %12 = load ptr, ptr @ta_insert_replace, align 8, !tbaa !33
  %13 = getelementptr inbounds i8, ptr %12, i64 0
  %14 = load i8, ptr %13, align 1, !tbaa !35
  %15 = sext i8 %14 to i32
  %16 = icmp eq i32 %15, 0
  br i1 %16, label %17, label %18

17:                                               ; preds = %11
  store i32 0, ptr %3, align 4
  br label %31

18:                                               ; preds = %11, %2
  %19 = load ptr, ptr @ta_insert_replace, align 8, !tbaa !33
  %20 = icmp ne ptr %19, null
  br i1 %20, label %21, label %30

21:                                               ; preds = %18
  %22 = load ptr, ptr @ta_insert_replace, align 8, !tbaa !33
  %23 = load ptr, ptr %5, align 8, !tbaa !33
  %24 = call i32 @lv_strcmp(ptr noundef %22, ptr noundef %23)
  %25 = icmp ne i32 %24, 0
  br i1 %25, label %26, label %29

26:                                               ; preds = %21
  %27 = load ptr, ptr %4, align 8, !tbaa !8
  %28 = load ptr, ptr @ta_insert_replace, align 8, !tbaa !33
  call void @lv_textarea_add_text(ptr noundef %27, ptr noundef %28)
  store i32 0, ptr %3, align 4
  br label %31

29:                                               ; preds = %21
  br label %30

30:                                               ; preds = %29, %18
  store i32 1, ptr %3, align 4
  br label %31

31:                                               ; preds = %30, %26, %17
  %32 = load i32, ptr %3, align 4
  ret i32 %32
}

; Function Attrs: nounwind uwtable
define void @lv_textarea_delete_char(ptr noundef %0) #0 {
  %2 = alloca ptr, align 8
  %3 = alloca ptr, align 8
  %4 = alloca i32, align 4
  %5 = alloca i32, align 4
  %6 = alloca [2 x i8], align 1
  %7 = alloca i32, align 4
  %8 = alloca ptr, align 8
  %9 = alloca ptr, align 8
  store ptr %0, ptr %2, align 8, !tbaa !8
  br label %10

10:                                               ; preds = %1
  %11 = load ptr, ptr %2, align 8, !tbaa !8
  %12 = icmp ne ptr %11, null
  br i1 %12, label %17, label %13

13:                                               ; preds = %10
  br label %14

14:                                               ; preds = %13
  br label %15

15:                                               ; preds = %14
  br label %16

16:                                               ; preds = %15, %16
  br label %16

17:                                               ; preds = %10
  br label %18

18:                                               ; preds = %17
  call void @llvm.lifetime.start.p0(i64 8, ptr %3) #6
  %19 = load ptr, ptr %2, align 8, !tbaa !8
  store ptr %19, ptr %3, align 8, !tbaa !10
  call void @llvm.lifetime.start.p0(i64 4, ptr %4) #6
  %20 = load ptr, ptr %3, align 8, !tbaa !10
  %21 = getelementptr inbounds nuw %struct._lv_textarea_t, ptr %20, i32 0, i32 8
  %22 = getelementptr inbounds nuw %struct.anon, ptr %21, i32 0, i32 1
  %23 = load i32, ptr %22, align 4, !tbaa !26
  store i32 %23, ptr %4, align 4, !tbaa !32
  %24 = load i32, ptr %4, align 4, !tbaa !32
  %25 = icmp eq i32 %24, 0
  br i1 %25, label %26, label %27

26:                                               ; preds = %18
  store i32 1, ptr %5, align 4
  br label %125

27:                                               ; preds = %18
  call void @llvm.lifetime.start.p0(i64 2, ptr %6) #6
  call void @llvm.memcpy.p0.p0.i64(ptr align 1 %6, ptr align 1 @__const.lv_textarea_delete_char.del_buf, i64 2, i1 false)
  call void @llvm.lifetime.start.p0(i64 4, ptr %7) #6
  %28 = load ptr, ptr %2, align 8, !tbaa !8
  %29 = getelementptr inbounds [2 x i8], ptr %6, i64 0, i64 0
  %30 = call i32 @insert_handler(ptr noundef %28, ptr noundef %29)
  store i32 %30, ptr %7, align 4, !tbaa !32
  %31 = load i32, ptr %7, align 4, !tbaa !32
  %32 = icmp ne i32 %31, 1
  br i1 %32, label %33, label %34

33:                                               ; preds = %27
  store i32 1, ptr %5, align 4
  br label %124

34:                                               ; preds = %27
  call void @llvm.lifetime.start.p0(i64 8, ptr %8) #6
  %35 = load ptr, ptr %3, align 8, !tbaa !10
  %36 = getelementptr inbounds nuw %struct._lv_textarea_t, ptr %35, i32 0, i32 1
  %37 = load ptr, ptr %36, align 8, !tbaa !28
  %38 = call ptr @lv_label_get_text(ptr noundef %37)
  store ptr %38, ptr %8, align 8, !tbaa !33
  %39 = load ptr, ptr %8, align 8, !tbaa !33
  %40 = load ptr, ptr %3, align 8, !tbaa !10
  %41 = getelementptr inbounds nuw %struct._lv_textarea_t, ptr %40, i32 0, i32 8
  %42 = getelementptr inbounds nuw %struct.anon, ptr %41, i32 0, i32 1
  %43 = load i32, ptr %42, align 4, !tbaa !26
  %44 = sub i32 %43, 1
  call void @lv_text_cut(ptr noundef %39, i32 noundef %44, i32 noundef 1)
  %45 = load ptr, ptr %3, align 8, !tbaa !10
  %46 = getelementptr inbounds nuw %struct._lv_textarea_t, ptr %45, i32 0, i32 1
  %47 = load ptr, ptr %46, align 8, !tbaa !28
  %48 = load ptr, ptr %8, align 8, !tbaa !33
  call void @lv_label_set_text(ptr noundef %47, ptr noundef %48)
  %49 = load ptr, ptr %2, align 8, !tbaa !8
  call void @lv_textarea_clear_selection(ptr noundef %49)
  %50 = load ptr, ptr %3, align 8, !tbaa !10
  %51 = getelementptr inbounds nuw %struct._lv_textarea_t, ptr %50, i32 0, i32 2
  %52 = load ptr, ptr %51, align 8, !tbaa !29
  %53 = icmp ne ptr %52, null
  br i1 %53, label %54, label %67

54:                                               ; preds = %34
  call void @llvm.lifetime.start.p0(i64 8, ptr %9) #6
  %55 = load ptr, ptr %3, align 8, !tbaa !10
  %56 = getelementptr inbounds nuw %struct._lv_textarea_t, ptr %55, i32 0, i32 1
  %57 = load ptr, ptr %56, align 8, !tbaa !28
  %58 = call ptr @lv_label_get_text(ptr noundef %57)
  store ptr %58, ptr %9, align 8, !tbaa !33
  %59 = load ptr, ptr %9, align 8, !tbaa !33
  %60 = getelementptr inbounds i8, ptr %59, i64 0
  %61 = load i8, ptr %60, align 1, !tbaa !35
  %62 = sext i8 %61 to i32
  %63 = icmp eq i32 %62, 0
  br i1 %63, label %64, label %66

64:                                               ; preds = %54
  %65 = load ptr, ptr %2, align 8, !tbaa !8
  call void @lv_obj_invalidate(ptr noundef %65)
  br label %66

66:                                               ; preds = %64, %54
  call void @llvm.lifetime.end.p0(i64 8, ptr %9) #6
  br label %67

67:                                               ; preds = %66, %34
  %68 = load ptr, ptr %3, align 8, !tbaa !10
  %69 = getelementptr inbounds nuw %struct._lv_textarea_t, ptr %68, i32 0, i32 11
  %70 = load i8, ptr %69, align 8
  %71 = lshr i8 %70, 2
  %72 = and i8 %71, 1
  %73 = icmp ne i8 %72, 0
  br i1 %73, label %74, label %114

74:                                               ; preds = %67
  %75 = load ptr, ptr %3, align 8, !tbaa !10
  %76 = getelementptr inbounds nuw %struct._lv_textarea_t, ptr %75, i32 0, i32 3
  %77 = load ptr, ptr %76, align 8, !tbaa !12
  %78 = load ptr, ptr %3, align 8, !tbaa !10
  %79 = getelementptr inbounds nuw %struct._lv_textarea_t, ptr %78, i32 0, i32 8
  %80 = getelementptr inbounds nuw %struct.anon, ptr %79, i32 0, i32 1
  %81 = load i32, ptr %80, align 4, !tbaa !26
  %82 = sub i32 %81, 1
  call void @lv_text_cut(ptr noundef %77, i32 noundef %82, i32 noundef 1)
  %83 = load ptr, ptr %3, align 8, !tbaa !10
  %84 = getelementptr inbounds nuw %struct._lv_textarea_t, ptr %83, i32 0, i32 3
  %85 = load ptr, ptr %84, align 8, !tbaa !12
  %86 = load ptr, ptr %3, align 8, !tbaa !10
  %87 = getelementptr inbounds nuw %struct._lv_textarea_t, ptr %86, i32 0, i32 3
  %88 = load ptr, ptr %87, align 8, !tbaa !12
  %89 = call i64 @lv_strlen(ptr noundef %88)
  %90 = add i64 %89, 1
  %91 = call ptr @lv_realloc(ptr noundef %85, i64 noundef %90)
  %92 = load ptr, ptr %3, align 8, !tbaa !10
  %93 = getelementptr inbounds nuw %struct._lv_textarea_t, ptr %92, i32 0, i32 3
  store ptr %91, ptr %93, align 8, !tbaa !12
  br label %94

94:                                               ; preds = %74
  %95 = load ptr, ptr %3, align 8, !tbaa !10
  %96 = getelementptr inbounds nuw %struct._lv_textarea_t, ptr %95, i32 0, i32 3
  %97 = load ptr, ptr %96, align 8, !tbaa !12
  %98 = icmp ne ptr %97, null
  br i1 %98, label %105, label %99

99:                                               ; preds = %94
  br label %100

100:                                              ; preds = %99
  br label %101

101:                                              ; preds = %100
  br label %102

102:                                              ; preds = %101
  br label %103

103:                                              ; preds = %104, %102
  br label %104

104:                                              ; preds = %103
  br label %103

105:                                              ; preds = %94
  br label %106

106:                                              ; preds = %105
  br label %107

107:                                              ; preds = %106
  %108 = load ptr, ptr %3, align 8, !tbaa !10
  %109 = getelementptr inbounds nuw %struct._lv_textarea_t, ptr %108, i32 0, i32 3
  %110 = load ptr, ptr %109, align 8, !tbaa !12
  %111 = icmp eq ptr %110, null
  br i1 %111, label %112, label %113

112:                                              ; preds = %107
  store i32 1, ptr %5, align 4
  br label %123

113:                                              ; preds = %107
  br label %114

114:                                              ; preds = %113, %67
  %115 = load ptr, ptr %2, align 8, !tbaa !8
  %116 = load ptr, ptr %3, align 8, !tbaa !10
  %117 = getelementptr inbounds nuw %struct._lv_textarea_t, ptr %116, i32 0, i32 8
  %118 = getelementptr inbounds nuw %struct.anon, ptr %117, i32 0, i32 1
  %119 = load i32, ptr %118, align 4, !tbaa !26
  %120 = sub i32 %119, 1
  call void @lv_textarea_set_cursor_pos(ptr noundef %115, i32 noundef %120)
  %121 = load ptr, ptr %2, align 8, !tbaa !8
  %122 = call i32 @lv_obj_send_event(ptr noundef %121, i32 noundef 35, ptr noundef null)
  store i32 0, ptr %5, align 4
  br label %123

123:                                              ; preds = %114, %112
  call void @llvm.lifetime.end.p0(i64 8, ptr %8) #6
  br label %124

124:                                              ; preds = %123, %33
  call void @llvm.lifetime.end.p0(i64 4, ptr %7) #6
  call void @llvm.lifetime.end.p0(i64 2, ptr %6) #6
  br label %125

125:                                              ; preds = %124, %26
  call void @llvm.lifetime.end.p0(i64 4, ptr %4) #6
  call void @llvm.lifetime.end.p0(i64 8, ptr %3) #6
  %126 = load i32, ptr %5, align 4
  switch i32 %126, label %128 [
    i32 0, label %127
    i32 1, label %127
  ]

127:                                              ; preds = %125, %125
  ret void

128:                                              ; preds = %125
  unreachable
}