; Function Attrs: nounwind uwtable
define void @lv_textarea_delete_char(ptr noundef %0) local_unnamed_addr #0 {
  %2 = alloca [2 x i8], align 2
  %.not = icmp eq ptr %0, null
  br i1 %.not, label %.preheader, label %3

.preheader:                                       ; preds = %1, %.preheader
  br label %.preheader

3:                                                ; preds = %1
  %4 = getelementptr inbounds nuw i8, ptr %0, i64 116
  %5 = load i32, ptr %4, align 4, !tbaa !20
  %6 = icmp eq i32 %5, 0
  br i1 %6, label %57, label %7

7:                                                ; preds = %3
  call void @llvm.lifetime.start.p0(i64 2, ptr nonnull %2) #10
  store i16 127, ptr %2, align 2
  store ptr null, ptr @ta_insert_replace, align 8, !tbaa !59
  %8 = call i32 @lv_obj_send_event(ptr noundef nonnull %0, i32 noundef 36, ptr noundef nonnull %2) #10
  %9 = load ptr, ptr @ta_insert_replace, align 8, !tbaa !59
  %.not.i = icmp eq ptr %9, null
  br i1 %.not.i, label %17, label %10

10:                                               ; preds = %7
  %11 = load i8, ptr %9, align 1, !tbaa !38
  %12 = icmp eq i8 %11, 0
  br i1 %12, label %insert_handler.exit.thread, label %13

13:                                               ; preds = %10
  %14 = call i32 @lv_strcmp(ptr noundef nonnull %9, ptr noundef nonnull %2) #10
  %.not7.i = icmp eq i32 %14, 0
  br i1 %.not7.i, label %17, label %15

15:                                               ; preds = %13
  %16 = load ptr, ptr @ta_insert_replace, align 8, !tbaa !59
  call void @lv_textarea_add_text(ptr noundef nonnull %0, ptr noundef %16)
  br label %insert_handler.exit.thread

17:                                               ; preds = %7, %13
  %18 = getelementptr inbounds nuw i8, ptr %0, i64 64
  %19 = load ptr, ptr %18, align 8, !tbaa !22
  %20 = call ptr @lv_label_get_text(ptr noundef %19) #10
  %21 = load i32, ptr %4, align 4, !tbaa !20
  %22 = add i32 %21, -1
  call void @lv_text_cut(ptr noundef %20, i32 noundef %22, i32 noundef 1) #10
  %23 = load ptr, ptr %18, align 8, !tbaa !22
  call void @lv_label_set_text(ptr noundef %23, ptr noundef %20) #10
  %24 = load ptr, ptr %18, align 8, !tbaa !22
  %25 = call i32 @lv_label_get_text_selection_start(ptr noundef %24) #10
  %.not6.i = icmp eq i32 %25, 65535
  br i1 %.not6.i, label %26, label %29

26:                                               ; preds = %17
  %27 = load ptr, ptr %18, align 8, !tbaa !22
  %28 = call i32 @lv_label_get_text_selection_end(ptr noundef %27) #10
  %.not7.i31 = icmp eq i32 %28, 65535
  br i1 %.not7.i31, label %lv_textarea_clear_selection.exit, label %29

29:                                               ; preds = %26, %17
  %30 = load ptr, ptr %18, align 8, !tbaa !22
  call void @lv_label_set_text_selection_start(ptr noundef %30, i32 noundef 65535) #10
  %31 = load ptr, ptr %18, align 8, !tbaa !22
  call void @lv_label_set_text_selection_end(ptr noundef %31, i32 noundef 65535) #10
  br label %lv_textarea_clear_selection.exit

lv_textarea_clear_selection.exit:                 ; preds = %26, %29
  %32 = getelementptr inbounds nuw i8, ptr %0, i64 72
  %33 = load ptr, ptr %32, align 8, !tbaa !25
  %.not27 = icmp eq ptr %33, null
  br i1 %.not27, label %40, label %34

34:                                               ; preds = %lv_textarea_clear_selection.exit
  %35 = load ptr, ptr %18, align 8, !tbaa !22
  %36 = call ptr @lv_label_get_text(ptr noundef %35) #10
  %37 = load i8, ptr %36, align 1, !tbaa !38
  %38 = icmp eq i8 %37, 0
  br i1 %38, label %39, label %40

39:                                               ; preds = %34
  call void @lv_obj_invalidate(ptr noundef nonnull %0) #10
  br label %40

40:                                               ; preds = %34, %39, %lv_textarea_clear_selection.exit
  %41 = getelementptr inbounds nuw i8, ptr %0, i64 152
  %42 = load i8, ptr %41, align 8
  %43 = and i8 %42, 4
  %.not28 = icmp eq i8 %43, 0
  br i1 %.not28, label %53, label %44

44:                                               ; preds = %40
  %45 = getelementptr inbounds nuw i8, ptr %0, i64 80
  %46 = load ptr, ptr %45, align 8, !tbaa !23
  %47 = load i32, ptr %4, align 4, !tbaa !20
  %48 = add i32 %47, -1
  call void @lv_text_cut(ptr noundef %46, i32 noundef %48, i32 noundef 1) #10
  %49 = load ptr, ptr %45, align 8, !tbaa !23
  %50 = call i64 @lv_strlen(ptr noundef %49) #10
  %51 = add i64 %50, 1
  %52 = call ptr @lv_realloc(ptr noundef %49, i64 noundef %51) #10
  store ptr %52, ptr %45, align 8, !tbaa !23
  %.not29 = icmp eq ptr %52, null
  br i1 %.not29, label %.preheader34, label %53

.preheader34:                                     ; preds = %44, %.preheader34
  br label %.preheader34

53:                                               ; preds = %44, %40
  %54 = load i32, ptr %4, align 4, !tbaa !20
  %55 = add i32 %54, -1
  call void @lv_textarea_set_cursor_pos(ptr noundef nonnull %0, i32 noundef %55)
  %56 = call i32 @lv_obj_send_event(ptr noundef nonnull %0, i32 noundef 35, ptr noundef null) #10
  br label %insert_handler.exit.thread

insert_handler.exit.thread:                       ; preds = %10, %15, %53
  call void @llvm.lifetime.end.p0(i64 2, ptr nonnull %2) #10
  br label %57

57:                                               ; preds = %3, %insert_handler.exit.thread
  ret void
}